target datalayout = "e-m:e-p270:32:32-p271:32:32-p272:64:64-i64:64-i128:128-f80:128-n8:16:32:64-S128"
target triple = "x86_64-pc-linux-gnu"

%"struct.pkpy::Str" = type { i32, i8, ptr, [16 x i8] }

@.str.60 = private unnamed_addr constant [23 x i8] c"expected statement end\00", align 1

; Function Attrs: mustprogress uwtable
define void @_ZN4pkpy8Compiler16consume_end_stmtEv(ptr noundef nonnull align 8 dereferenceable(200) %0) #4 align 2 personality ptr @__gxx_personality_v0 {
  %2 = alloca ptr, align 8
  %3 = alloca %"struct.pkpy::Str", align 8
  %4 = alloca ptr, align 8
  %5 = alloca i32, align 4
  store ptr %0, ptr %2, align 8
  %6 = load ptr, ptr %2, align 8
  %7 = call noundef zeroext i1 @_ZN4pkpy8Compiler14match_end_stmtEv(ptr noundef nonnull align 8 dereferenceable(200) %6)
  br i1 %7, label %14, label %8

8:                                                ; preds = %1
  call void @_ZN4pkpy3StrC1EPKc(ptr noundef nonnull align 8 dereferenceable(32) %3, ptr noundef @.str.60)
  invoke void @_ZN4pkpy8Compiler11SyntaxErrorENS_3StrE(ptr noundef nonnull align 8 dereferenceable(200) %6, ptr noundef %3)
          to label %9 unwind label %10

9:                                                ; preds = %8
  call void @_ZN4pkpy3StrD1Ev(ptr noundef nonnull align 8 dereferenceable(32) %3) #3
  br label %14

10:                                               ; preds = %8
  %11 = landingpad { ptr, i32 }
          cleanup
  %12 = extractvalue { ptr, i32 } %11, 0
  store ptr %12, ptr %4, align 8
  %13 = extractvalue { ptr, i32 } %11, 1
  store i32 %13, ptr %5, align 4
  call void @_ZN4pkpy3StrD1Ev(ptr noundef nonnull align 8 dereferenceable(32) %3) #3
  br label %15

14:                                               ; preds = %9, %1
  ret void

15:                                               ; preds = %10
  %16 = load ptr, ptr %4, align 8
  %17 = load i32, ptr %5, align 4
  %18 = insertvalue { ptr, i32 } poison, ptr %16, 0
  %19 = insertvalue { ptr, i32 } %18, i32 %17, 1
  resume { ptr, i32 } %19
}