; Function Attrs: mustprogress uwtable
define void @_ZN4pkpy8Compiler16consume_end_stmtEv(ptr noundef nonnull align 8 dereferenceable(200) %0) local_unnamed_addr #5 align 2 personality ptr @__gxx_personality_v0 {
  %2 = alloca %"struct.pkpy::Str", align 8
  %3 = tail call noundef zeroext i1 @_ZN4pkpy8Compiler14match_end_stmtEv(ptr noundef nonnull align 8 dereferenceable(200) %0)
  br i1 %3, label %8, label %4

4:                                                ; preds = %1
  call void @_ZN4pkpy3StrC1EPKc(ptr noundef nonnull align 8 dereferenceable(32) %2, ptr noundef nonnull @.str.60)
  invoke void @_ZN4pkpy8Compiler11SyntaxErrorENS_3StrE(ptr noundef nonnull align 8 dereferenceable(200) %0, ptr noundef nonnull %2)
          to label %5 unwind label %6

5:                                                ; preds = %4
  call void @_ZN4pkpy3StrD1Ev(ptr noundef nonnull align 8 dereferenceable(32) %2) #36
  br label %8

6:                                                ; preds = %4
  %7 = landingpad { ptr, i32 }
          cleanup
  call void @_ZN4pkpy3StrD1Ev(ptr noundef nonnull align 8 dereferenceable(32) %2) #36
  resume { ptr, i32 } %7

8:                                                ; preds = %5, %1
  ret void
}